target datalayout = "e-m:e-p270:32:32-p271:32:32-p272:64:64-i64:64-i128:128-f80:128-n8:16:32:64-S128"
target triple = "x86_64-pc-linux-gnu"

%"struct.duckdb_yyjson::yyjson_alc" = type { ptr, ptr, ptr, ptr }
%"struct.duckdb_yyjson::yyjson_doc" = type { ptr, %"struct.duckdb_yyjson::yyjson_alc", i64, i64, ptr }

@_ZN13duckdb_yyjsonL18YYJSON_DEFAULT_ALCE = internal constant %"struct.duckdb_yyjson::yyjson_alc" { ptr @_ZN13duckdb_yyjsonL14default_mallocEPvm, ptr @_ZN13duckdb_yyjsonL15default_reallocEPvS0_mm, ptr @_ZN13duckdb_yyjsonL12default_freeEPvS0_, ptr null }, align 8

; Function Attrs: alwaysinline mustprogress nounwind uwtable
define internal noundef zeroext i1 @_ZN13duckdb_yyjsonL12size_is_pow2Em(i64 noundef %0) #7 {
  %2 = alloca i64, align 8
  store i64 %0, ptr %2, align 8, !tbaa !9
  %3 = load i64, ptr %2, align 8, !tbaa !9
  %4 = load i64, ptr %2, align 8, !tbaa !9
  %5 = sub i64 %4, 1
  %6 = and i64 %3, %5
  %7 = icmp eq i64 %6, 0
  ret i1 %7
}

; Function Attrs: alwaysinline mustprogress nounwind uwtable
define internal noundef i64 @_ZN13duckdb_yyjsonL13size_align_upEmm(i64 noundef %0, i64 noundef %1) #7 {
  %3 = alloca i64, align 8
  %4 = alloca i64, align 8
  %5 = alloca i64, align 8
  store i64 %0, ptr %4, align 8, !tbaa !9
  store i64 %1, ptr %5, align 8, !tbaa !9
  %6 = load i64, ptr %5, align 8, !tbaa !9
  %7 = call noundef zeroext i1 @_ZN13duckdb_yyjsonL12size_is_pow2Em(i64 noundef %6)
  br i1 %7, label %8, label %17

8:                                                ; preds = %2
  %9 = load i64, ptr %4, align 8, !tbaa !9
  %10 = load i64, ptr %5, align 8, !tbaa !9
  %11 = sub i64 %10, 1
  %12 = add i64 %9, %11
  %13 = load i64, ptr %5, align 8, !tbaa !9
  %14 = sub i64 %13, 1
  %15 = xor i64 %14, -1
  %16 = and i64 %12, %15
  store i64 %16, ptr %3, align 8
  br label %29

17:                                               ; preds = %2
  %18 = load i64, ptr %4, align 8, !tbaa !9
  %19 = load i64, ptr %5, align 8, !tbaa !9
  %20 = add i64 %18, %19
  %21 = load i64, ptr %4, align 8, !tbaa !9
  %22 = load i64, ptr %5, align 8, !tbaa !9
  %23 = add i64 %21, %22
  %24 = sub i64 %23, 1
  %25 = load i64, ptr %5, align 8, !tbaa !9
  %26 = urem i64 %24, %25
  %27 = sub i64 %20, %26
  %28 = sub i64 %27, 1
  store i64 %28, ptr %3, align 8
  br label %29

29:                                               ; preds = %17, %8
  %30 = load i64, ptr %3, align 8
  ret i64 %30
}

; Function Attrs: mustprogress uwtable
define noundef ptr @_ZN13duckdb_yyjson24yyjson_mut_val_imut_copyEPNS_14yyjson_mut_valEPKNS_10yyjson_alcE(ptr noundef %0, ptr noundef %1) #1 {
  %3 = alloca ptr, align 8
  %4 = alloca ptr, align 8
  %5 = alloca ptr, align 8
  %6 = alloca i64, align 8
  %7 = alloca i64, align 8
  %8 = alloca i64, align 8
  %9 = alloca i64, align 8
  %10 = alloca ptr, align 8
  %11 = alloca ptr, align 8
  %12 = alloca ptr, align 8
  %13 = alloca i32, align 4
  store ptr %0, ptr %4, align 8, !tbaa !85
  store ptr %1, ptr %5, align 8, !tbaa !3
  call void @llvm.lifetime.start.p0(i64 8, ptr %6) #15
  store i64 0, ptr %6, align 8, !tbaa !9
  call void @llvm.lifetime.start.p0(i64 8, ptr %7) #15
  store i64 0, ptr %7, align 8, !tbaa !9
  call void @llvm.lifetime.start.p0(i64 8, ptr %8) #15
  call void @llvm.lifetime.start.p0(i64 8, ptr %9) #15
  call void @llvm.lifetime.start.p0(i64 8, ptr %10) #15
  store ptr null, ptr %10, align 8, !tbaa !80
  call void @llvm.lifetime.start.p0(i64 8, ptr %11) #15
  store ptr null, ptr %11, align 8, !tbaa !86
  call void @llvm.lifetime.start.p0(i64 8, ptr %12) #15
  store ptr %7, ptr %12, align 8, !tbaa !92
  %14 = load ptr, ptr %4, align 8, !tbaa !85
  %15 = icmp ne ptr %14, null
  br i1 %15, label %17, label %16

16:                                               ; preds = %2
  store ptr null, ptr %3, align 8
  store i32 1, ptr %13, align 4
  br label %85

17:                                               ; preds = %2
  %18 = load ptr, ptr %5, align 8, !tbaa !3
  %19 = icmp ne ptr %18, null
  br i1 %19, label %21, label %20

20:                                               ; preds = %17
  store ptr @_ZN13duckdb_yyjsonL18YYJSON_DEFAULT_ALCE, ptr %5, align 8, !tbaa !3
  br label %21

21:                                               ; preds = %20, %17
  %22 = load ptr, ptr %4, align 8, !tbaa !85
  call void @_ZN13duckdb_yyjsonL15yyjson_mut_statEPNS_14yyjson_mut_valEPmS2_(ptr noundef %22, ptr noundef %6, ptr noundef %7)
  %23 = call noundef i64 @_ZN13duckdb_yyjsonL13size_align_upEmm(i64 noundef 64, i64 noundef 16)
  store i64 %23, ptr %8, align 8, !tbaa !9
  %24 = load i64, ptr %8, align 8, !tbaa !9
  %25 = load i64, ptr %6, align 8, !tbaa !9
  %26 = mul i64 %25, 16
  %27 = add i64 %24, %26
  store i64 %27, ptr %9, align 8, !tbaa !9
  %28 = load ptr, ptr %5, align 8, !tbaa !3
  %29 = getelementptr inbounds nuw %"struct.duckdb_yyjson::yyjson_alc", ptr %28, i32 0, i32 0
  %30 = load ptr, ptr %29, align 8, !tbaa !22
  %31 = load ptr, ptr %5, align 8, !tbaa !3
  %32 = getelementptr inbounds nuw %"struct.duckdb_yyjson::yyjson_alc", ptr %31, i32 0, i32 3
  %33 = load ptr, ptr %32, align 8, !tbaa !26
  %34 = load i64, ptr %9, align 8, !tbaa !9
  %35 = call noundef ptr %30(ptr noundef %33, i64 noundef %34)
  store ptr %35, ptr %10, align 8, !tbaa !80
  %36 = load ptr, ptr %10, align 8, !tbaa !80
  %37 = icmp ne ptr %36, null
  br i1 %37, label %39, label %38

38:                                               ; preds = %21
  store ptr null, ptr %3, align 8
  store i32 1, ptr %13, align 4
  br label %85

39:                                               ; preds = %21
  %40 = load ptr, ptr %10, align 8, !tbaa !80
  call void @llvm.memset.p0.i64(ptr align 8 %40, i8 0, i64 64, i1 false)
  %41 = load ptr, ptr %10, align 8, !tbaa !80
  %42 = load i64, ptr %8, align 8, !tbaa !9
  %43 = getelementptr inbounds nuw i8, ptr %41, i64 %42
  store ptr %43, ptr %11, align 8, !tbaa !86
  %44 = load ptr, ptr %11, align 8, !tbaa !86
  %45 = load ptr, ptr %10, align 8, !tbaa !80
  %46 = getelementptr inbounds nuw %"struct.duckdb_yyjson::yyjson_doc", ptr %45, i32 0, i32 0
  store ptr %44, ptr %46, align 8, !tbaa !82
  %47 = load ptr, ptr %5, align 8, !tbaa !3
  %48 = load ptr, ptr %10, align 8, !tbaa !80
  %49 = getelementptr inbounds nuw %"struct.duckdb_yyjson::yyjson_doc", ptr %48, i32 0, i32 1
  call void @llvm.memcpy.p0.p0.i64(ptr align 8 %49, ptr align 8 %47, i64 32, i1 false), !tbaa.struct !11
  %50 = load i64, ptr %7, align 8, !tbaa !9
  %51 = icmp ugt i64 %50, 0
  br i1 %51, label %52, label %75

52:                                               ; preds = %39
  %53 = load ptr, ptr %5, align 8, !tbaa !3
  %54 = getelementptr inbounds nuw %"struct.duckdb_yyjson::yyjson_alc", ptr %53, i32 0, i32 0
  %55 = load ptr, ptr %54, align 8, !tbaa !22
  %56 = load ptr, ptr %5, align 8, !tbaa !3
  %57 = getelementptr inbounds nuw %"struct.duckdb_yyjson::yyjson_alc", ptr %56, i32 0, i32 3
  %58 = load ptr, ptr %57, align 8, !tbaa !26
  %59 = load i64, ptr %7, align 8, !tbaa !9
  %60 = call noundef ptr %55(ptr noundef %58, i64 noundef %59)
  store ptr %60, ptr %12, align 8, !tbaa !92
  %61 = load ptr, ptr %12, align 8, !tbaa !92
  %62 = load ptr, ptr %10, align 8, !tbaa !80
  %63 = getelementptr inbounds nuw %"struct.duckdb_yyjson::yyjson_doc", ptr %62, i32 0, i32 4
  store ptr %61, ptr %63, align 8, !tbaa !104
  %64 = load ptr, ptr %12, align 8, !tbaa !92
  %65 = icmp ne ptr %64, null
  br i1 %65, label %74, label %66

66:                                               ; preds = %52
  %67 = load ptr, ptr %5, align 8, !tbaa !3
  %68 = getelementptr inbounds nuw %"struct.duckdb_yyjson::yyjson_alc", ptr %67, i32 0, i32 2
  %69 = load ptr, ptr %68, align 8, !tbaa !25
  %70 = load ptr, ptr %5, align 8, !tbaa !3
  %71 = getelementptr inbounds nuw %"struct.duckdb_yyjson::yyjson_alc", ptr %70, i32 0, i32 3
  %72 = load ptr, ptr %71, align 8, !tbaa !26
  %73 = load ptr, ptr %10, align 8, !tbaa !80
  call void %69(ptr noundef %72, ptr noundef %73)
  store ptr null, ptr %3, align 8
  store i32 1, ptr %13, align 4
  br label %85

74:                                               ; preds = %52
  br label %75

75:                                               ; preds = %74, %39
  %76 = load ptr, ptr %4, align 8, !tbaa !85
  %77 = call noundef i64 @_ZN13duckdb_yyjsonL16yyjson_imut_copyEPPNS_10yyjson_valEPPcPNS_14yyjson_mut_valE(ptr noundef %11, ptr noundef %12, ptr noundef %76)
  %78 = load ptr, ptr %10, align 8, !tbaa !80
  %79 = getelementptr inbounds nuw %"struct.duckdb_yyjson::yyjson_doc", ptr %78, i32 0, i32 3
  store i64 %77, ptr %79, align 8, !tbaa !105
  %80 = load i64, ptr %7, align 8, !tbaa !9
  %81 = add i64 %80, 1
  %82 = load ptr, ptr %10, align 8, !tbaa !80
  %83 = getelementptr inbounds nuw %"struct.duckdb_yyjson::yyjson_doc", ptr %82, i32 0, i32 2
  store i64 %81, ptr %83, align 8, !tbaa !106
  %84 = load ptr, ptr %10, align 8, !tbaa !80
  store ptr %84, ptr %3, align 8
  store i32 1, ptr %13, align 4
  br label %85

85:                                               ; preds = %75, %66, %38, %16
  call void @llvm.lifetime.end.p0(i64 8, ptr %12) #15
  call void @llvm.lifetime.end.p0(i64 8, ptr %11) #15
  call void @llvm.lifetime.end.p0(i64 8, ptr %10) #15
  call void @llvm.lifetime.end.p0(i64 8, ptr %9) #15
  call void @llvm.lifetime.end.p0(i64 8, ptr %8) #15
  call void @llvm.lifetime.end.p0(i64 8, ptr %7) #15
  call void @llvm.lifetime.end.p0(i64 8, ptr %6) #15
  %86 = load ptr, ptr %3, align 8
  ret ptr %86
}