; Function Attrs: mustprogress uwtable
define noundef ptr @_ZN13duckdb_yyjson24yyjson_mut_val_imut_copyEPNS_14yyjson_mut_valEPKNS_10yyjson_alcE(ptr noundef readonly captures(address_is_null) %0, ptr noundef readonly captures(address_is_null) %1) local_unnamed_addr #10 {
  %3 = alloca i64, align 8
  %4 = alloca i64, align 8
  %5 = alloca ptr, align 8
  %6 = alloca ptr, align 8
  call void @llvm.lifetime.start.p0(i64 8, ptr nonnull %3) #31
  store i64 0, ptr %3, align 8, !tbaa !85
  call void @llvm.lifetime.start.p0(i64 8, ptr nonnull %4) #31
  store i64 0, ptr %4, align 8, !tbaa !85
  call void @llvm.lifetime.start.p0(i64 8, ptr nonnull %5) #31
  call void @llvm.lifetime.start.p0(i64 8, ptr nonnull %6) #31
  store ptr %4, ptr %6, align 8, !tbaa !86
  %.not = icmp eq ptr %0, null
  br i1 %.not, label %34, label %_ZN13duckdb_yyjsonL13size_align_upEmm.exit

_ZN13duckdb_yyjsonL13size_align_upEmm.exit:       ; preds = %2
  %.not27 = icmp eq ptr %1, null
  %spec.store.select = select i1 %.not27, ptr @_ZN13duckdb_yyjsonL18YYJSON_DEFAULT_ALCE, ptr %1
  call fastcc void @_ZN13duckdb_yyjsonL15yyjson_mut_statEPNS_14yyjson_mut_valEPmS2_(ptr noundef nonnull %0, ptr noundef %3, ptr noundef %4)
  %7 = load i64, ptr %3, align 8, !tbaa !85
  %8 = shl i64 %7, 4
  %9 = add i64 %8, 64
  %10 = load ptr, ptr %spec.store.select, align 8, !tbaa !17
  %11 = getelementptr inbounds nuw i8, ptr %spec.store.select, i64 24
  %12 = load ptr, ptr %11, align 8, !tbaa !21
  %13 = call noundef ptr %10(ptr noundef %12, i64 noundef %9)
  %.not28 = icmp eq ptr %13, null
  br i1 %.not28, label %34, label %14

14:                                               ; preds = %_ZN13duckdb_yyjsonL13size_align_upEmm.exit
  %15 = getelementptr inbounds nuw i8, ptr %13, i64 8
  call void @llvm.memset.p0.i64(ptr noundef nonnull align 8 dereferenceable(64) %15, i8 0, i64 56, i1 false)
  %16 = getelementptr inbounds nuw i8, ptr %13, i64 64
  store ptr %16, ptr %5, align 8, !tbaa !87
  store ptr %16, ptr %13, align 8, !tbaa !69
  %17 = getelementptr inbounds nuw i8, ptr %13, i64 8
  call void @llvm.memcpy.p0.p0.i64(ptr noundef nonnull align 8 dereferenceable(32) %17, ptr noundef nonnull align 8 dereferenceable(32) %spec.store.select, i64 32, i1 false), !tbaa.struct !4
  %18 = load i64, ptr %4, align 8, !tbaa !85
  %.not29 = icmp eq i64 %18, 0
  br i1 %.not29, label %28, label %19

19:                                               ; preds = %14
  %20 = load ptr, ptr %spec.store.select, align 8, !tbaa !17
  %21 = load ptr, ptr %11, align 8, !tbaa !21
  %22 = call noundef ptr %20(ptr noundef %21, i64 noundef %18)
  store ptr %22, ptr %6, align 8, !tbaa !86
  %23 = getelementptr inbounds nuw i8, ptr %13, i64 56
  store ptr %22, ptr %23, align 8, !tbaa !88
  %.not30 = icmp eq ptr %22, null
  br i1 %.not30, label %24, label %28

24:                                               ; preds = %19
  %25 = getelementptr inbounds nuw i8, ptr %spec.store.select, i64 16
  %26 = load ptr, ptr %25, align 8, !tbaa !20
  %27 = load ptr, ptr %11, align 8, !tbaa !21
  call void %26(ptr noundef %27, ptr noundef nonnull %13)
  br label %34

28:                                               ; preds = %19, %14
  %29 = call fastcc noundef i64 @_ZN13duckdb_yyjsonL16yyjson_imut_copyEPPNS_10yyjson_valEPPcPNS_14yyjson_mut_valE(ptr noundef %5, ptr noundef %6, ptr noundef nonnull %0)
  %30 = getelementptr inbounds nuw i8, ptr %13, i64 48
  store i64 %29, ptr %30, align 8, !tbaa !89
  %31 = load i64, ptr %4, align 8, !tbaa !85
  %32 = add i64 %31, 1
  %33 = getelementptr inbounds nuw i8, ptr %13, i64 40
  store i64 %32, ptr %33, align 8, !tbaa !90
  br label %34

34:                                               ; preds = %_ZN13duckdb_yyjsonL13size_align_upEmm.exit, %2, %28, %24
  %.0 = phi ptr [ %13, %28 ], [ null, %24 ], [ null, %2 ], [ null, %_ZN13duckdb_yyjsonL13size_align_upEmm.exit ]
  call void @llvm.lifetime.end.p0(i64 8, ptr nonnull %6) #31
  call void @llvm.lifetime.end.p0(i64 8, ptr nonnull %5) #31
  call void @llvm.lifetime.end.p0(i64 8, ptr nonnull %4) #31
  call void @llvm.lifetime.end.p0(i64 8, ptr nonnull %3) #31
  ret ptr %.0
}